; Function Attrs: mustprogress nounwind uwtable
define internal fastcc void @"_ZZN4llvm15ValueEnumerator24dropFunctionFromMetadataERNS_6detail12DenseMapPairIPKNS_8MetadataENS0_7MDIndexEEEENK3$_0clES8_"(ptr nocapture noundef nonnull readonly align 8 dereferenceable(8) %0, ptr nocapture noundef nonnull align 8 dereferenceable(16) %1) unnamed_addr #0 align 2 {
  %3 = getelementptr inbounds nuw i8, ptr %1, i64 8
  %4 = load i32, ptr %3, align 8
  %.not = icmp eq i32 %4, 0
  br i1 %.not, label %_ZN4llvm8dyn_castINS_6MDNodeEKNS_8MetadataEEEDcPT0_.exit, label %5

5:                                                ; preds = %2
  store i32 0, ptr %3, align 8
  %6 = getelementptr inbounds i8, ptr %1, i64 12
  %7 = load i32, ptr %6, align 4
  %.not8 = icmp eq i32 %7, 0
  br i1 %.not8, label %_ZN4llvm8dyn_castINS_6MDNodeEKNS_8MetadataEEEDcPT0_.exit, label %8

8:                                                ; preds = %5
  %9 = load ptr, ptr %1, align 8
  %10 = load i8, ptr %9, align 4
  %.off = add i8 %10, -5
  %switch = icmp ult i8 %.off, 31
  br i1 %switch, label %11, label %_ZN4llvm8dyn_castINS_6MDNodeEKNS_8MetadataEEEDcPT0_.exit

11:                                               ; preds = %8
  %12 = load ptr, ptr %0, align 8
  %13 = tail call noundef i64 @_ZNK4llvm15SmallVectorBaseIjE4sizeEv(ptr noundef nonnull align 8 dereferenceable(16) %12) #22
  %14 = add i64 %13, 1
  %15 = tail call noundef i64 @_ZNK4llvm15SmallVectorBaseIjE8capacityEv(ptr noundef nonnull align 8 dereferenceable(16) %12) #22
  %.not.i.i.i = icmp ugt i64 %14, %15
  br i1 %.not.i.i.i, label %16, label %_ZN4llvm23SmallVectorTemplateBaseIPKNS_6MDNodeELb1EE9push_backES3_.exit

16:                                               ; preds = %11
  %17 = getelementptr inbounds i8, ptr %12, i64 16
  tail call void @_ZN4llvm15SmallVectorBaseIjE8grow_podEPvmm(ptr noundef nonnull align 8 dereferenceable(16) %12, ptr noundef nonnull %17, i64 noundef %14, i64 noundef 8) #22
  br label %_ZN4llvm23SmallVectorTemplateBaseIPKNS_6MDNodeELb1EE9push_backES3_.exit

_ZN4llvm23SmallVectorTemplateBaseIPKNS_6MDNodeELb1EE9push_backES3_.exit: ; preds = %11, %16
  %18 = load ptr, ptr %12, align 8
  %19 = tail call noundef i64 @_ZNK4llvm15SmallVectorBaseIjE4sizeEv(ptr noundef nonnull align 8 dereferenceable(16) %12) #22
  %20 = getelementptr inbounds ptr, ptr %18, i64 %19
  %21 = ptrtoint ptr %9 to i64
  store i64 %21, ptr %20, align 1
  %22 = tail call noundef i64 @_ZNK4llvm15SmallVectorBaseIjE4sizeEv(ptr noundef nonnull align 8 dereferenceable(16) %12) #22
  %23 = add i64 %22, 1
  tail call void @_ZN4llvm15SmallVectorBaseIjE8set_sizeEm(ptr noundef nonnull align 8 dereferenceable(16) %12, i64 noundef %23) #22
  br label %_ZN4llvm8dyn_castINS_6MDNodeEKNS_8MetadataEEEDcPT0_.exit

_ZN4llvm8dyn_castINS_6MDNodeEKNS_8MetadataEEEDcPT0_.exit: ; preds = %8, %_ZN4llvm23SmallVectorTemplateBaseIPKNS_6MDNodeELb1EE9push_backES3_.exit, %2, %5
  ret void
}